target datalayout = "e-m:e-p270:32:32-p271:32:32-p272:64:64-i64:64-i128:128-f80:128-n8:16:32:64-S128"
target triple = "x86_64-pc-linux-gnu"

%"class.Stockfish::Move" = type { i16 }
%"struct.Stockfish::TTEntry" = type { i16, i8, i8, %"class.Stockfish::Move", i16, i16 }
%"class.Stockfish::TranspositionTable" = type <{ i64, ptr, i8, [7 x i8] }>
%class.anon = type { ptr, i64, i64 }
%"struct.Stockfish::TranspositionTable::Cluster" = type { [3 x %"struct.Stockfish::TTEntry"], [2 x i8] }
%"struct.std::thread::_State_impl" = type { %"struct.std::thread::_State", %"struct.std::thread::_Invoker" }
%"struct.std::thread::_State" = type { ptr }
%"struct.std::thread::_Invoker" = type { %"class.std::tuple.2" }
%"class.std::tuple.2" = type { %"struct.std::_Tuple_impl.3" }
%"struct.std::_Tuple_impl.3" = type { %"struct.std::_Head_base.4" }
%"struct.std::_Head_base.4" = type { %class.anon }

; Function Attrs: mustprogress nounwind uwtable
define internal noundef nonnull align 8 dereferenceable(24) ptr @"_ZNSt10_Head_baseILm0EZN9Stockfish18TranspositionTable5clearEmE3$_0Lb0EE7_M_headERS3_"(ptr noundef nonnull align 8 dereferenceable(24) %0) #4 align 2 {
  %2 = alloca ptr, align 8
  store ptr %0, ptr %2, align 8
  %3 = load ptr, ptr %2, align 8
  %4 = getelementptr inbounds %"struct.std::_Head_base.4", ptr %3, i32 0, i32 0
  ret ptr %4
}

; Function Attrs: mustprogress nounwind uwtable
define internal void @"_ZZN9Stockfish18TranspositionTable5clearEmENK3$_0clEv"(ptr noundef nonnull align 8 dereferenceable(24) %0) #4 align 2 {
  %2 = alloca ptr, align 8
  %3 = alloca i64, align 8
  %4 = alloca i64, align 8
  %5 = alloca i64, align 8
  store ptr %0, ptr %2, align 8
  %6 = load ptr, ptr %2, align 8
  %7 = getelementptr inbounds %class.anon, ptr %6, i32 0, i32 0
  %8 = load ptr, ptr %7, align 8
  %9 = getelementptr inbounds %class.anon, ptr %6, i32 0, i32 2
  %10 = load i64, ptr %9, align 8
  %11 = icmp ugt i64 %10, 8
  br i1 %11, label %12, label %15

12:                                               ; preds = %1
  %13 = getelementptr inbounds %class.anon, ptr %6, i32 0, i32 1
  %14 = load i64, ptr %13, align 8
  call void @_ZN9Stockfish12WinProcGroup14bindThisThreadEm(i64 noundef %14)
  br label %15

15:                                               ; preds = %12, %1
  %16 = getelementptr inbounds %"class.Stockfish::TranspositionTable", ptr %8, i32 0, i32 0
  %17 = load i64, ptr %16, align 8
  %18 = getelementptr inbounds %class.anon, ptr %6, i32 0, i32 2
  %19 = load i64, ptr %18, align 8
  %20 = udiv i64 %17, %19
  store i64 %20, ptr %3, align 8
  %21 = load i64, ptr %3, align 8
  %22 = getelementptr inbounds %class.anon, ptr %6, i32 0, i32 1
  %23 = load i64, ptr %22, align 8
  %24 = mul i64 %21, %23
  store i64 %24, ptr %4, align 8
  %25 = getelementptr inbounds %class.anon, ptr %6, i32 0, i32 1
  %26 = load i64, ptr %25, align 8
  %27 = getelementptr inbounds %class.anon, ptr %6, i32 0, i32 2
  %28 = load i64, ptr %27, align 8
  %29 = sub i64 %28, 1
  %30 = icmp ne i64 %26, %29
  br i1 %30, label %31, label %33

31:                                               ; preds = %15
  %32 = load i64, ptr %3, align 8
  br label %38

33:                                               ; preds = %15
  %34 = getelementptr inbounds %"class.Stockfish::TranspositionTable", ptr %8, i32 0, i32 0
  %35 = load i64, ptr %34, align 8
  %36 = load i64, ptr %4, align 8
  %37 = sub i64 %35, %36
  br label %38

38:                                               ; preds = %33, %31
  %39 = phi i64 [ %32, %31 ], [ %37, %33 ]
  store i64 %39, ptr %5, align 8
  %40 = getelementptr inbounds %"class.Stockfish::TranspositionTable", ptr %8, i32 0, i32 1
  %41 = load ptr, ptr %40, align 8
  %42 = load i64, ptr %4, align 8
  %43 = getelementptr inbounds %"struct.Stockfish::TranspositionTable::Cluster", ptr %41, i64 %42
  %44 = load i64, ptr %5, align 8
  %45 = mul i64 %44, 32
  call void @llvm.memset.p0.i64(ptr align 2 %43, i8 0, i64 %45, i1 false)
  ret void
}

; Function Attrs: mustprogress nounwind uwtable
define internal noundef nonnull align 8 dereferenceable(24) ptr @"_ZNSt11_Tuple_implILm0EJZN9Stockfish18TranspositionTable5clearEmE3$_0EE7_M_headERS3_"(ptr noundef nonnull align 8 dereferenceable(24) %0) #4 align 2 {
  %2 = alloca ptr, align 8
  store ptr %0, ptr %2, align 8
  %3 = load ptr, ptr %2, align 8
  %4 = call noundef nonnull align 8 dereferenceable(24) ptr @"_ZNSt10_Head_baseILm0EZN9Stockfish18TranspositionTable5clearEmE3$_0Lb0EE7_M_headERS3_"(ptr noundef nonnull align 8 dereferenceable(24) %3) #3
  ret ptr %4
}

; Function Attrs: mustprogress nounwind uwtable
define internal void @"_ZSt13__invoke_implIvZN9Stockfish18TranspositionTable5clearEmE3$_0JEET_St14__invoke_otherOT0_DpOT1_"(ptr noundef nonnull align 8 dereferenceable(24) %0) #4 {
  %2 = alloca ptr, align 8
  store ptr %0, ptr %2, align 8
  %3 = load ptr, ptr %2, align 8
  call void @"_ZZN9Stockfish18TranspositionTable5clearEmENK3$_0clEv"(ptr noundef nonnull align 8 dereferenceable(24) %3)
  ret void
}

; Function Attrs: mustprogress nounwind uwtable
define internal noundef nonnull align 8 dereferenceable(24) ptr @"_ZSt12__get_helperILm0EZN9Stockfish18TranspositionTable5clearEmE3$_0JEERT0_RSt11_Tuple_implIXT_EJS3_DpT1_EE"(ptr noundef nonnull align 8 dereferenceable(24) %0) #4 {
  %2 = alloca ptr, align 8
  store ptr %0, ptr %2, align 8
  %3 = load ptr, ptr %2, align 8
  %4 = call noundef nonnull align 8 dereferenceable(24) ptr @"_ZNSt11_Tuple_implILm0EJZN9Stockfish18TranspositionTable5clearEmE3$_0EE7_M_headERS3_"(ptr noundef nonnull align 8 dereferenceable(24) %3) #3
  ret ptr %4
}

; Function Attrs: mustprogress nounwind uwtable
define internal void @"_ZSt8__invokeIZN9Stockfish18TranspositionTable5clearEmE3$_0JEENSt15__invoke_resultIT_JDpT0_EE4typeEOS4_DpOS5_"(ptr noundef nonnull align 8 dereferenceable(24) %0) #4 {
  %2 = alloca ptr, align 8
  store ptr %0, ptr %2, align 8
  %3 = load ptr, ptr %2, align 8
  call void @"_ZSt13__invoke_implIvZN9Stockfish18TranspositionTable5clearEmE3$_0JEET_St14__invoke_otherOT0_DpOT1_"(ptr noundef nonnull align 8 dereferenceable(24) %3)
  ret void
}

; Function Attrs: mustprogress nounwind uwtable
define internal noundef nonnull align 8 dereferenceable(24) ptr @"_ZSt3getILm0EJZN9Stockfish18TranspositionTable5clearEmE3$_0EEONSt13tuple_elementIXT_ESt5tupleIJDpT0_EEE4typeEOS7_"(ptr noundef nonnull align 8 dereferenceable(24) %0) #4 {
  %2 = alloca ptr, align 8
  store ptr %0, ptr %2, align 8
  %3 = load ptr, ptr %2, align 8
  %4 = call noundef nonnull align 8 dereferenceable(24) ptr @"_ZSt12__get_helperILm0EZN9Stockfish18TranspositionTable5clearEmE3$_0JEERT0_RSt11_Tuple_implIXT_EJS3_DpT1_EE"(ptr noundef nonnull align 8 dereferenceable(24) %3) #3
  ret ptr %4
}

; Function Attrs: mustprogress nounwind uwtable
define internal void @"_ZNSt6thread8_InvokerISt5tupleIJZN9Stockfish18TranspositionTable5clearEmE3$_0EEE9_M_invokeIJLm0EEEEvSt12_Index_tupleIJXspT_EEE"(ptr noundef nonnull align 8 dereferenceable(24) %0) #4 align 2 {
  %2 = alloca ptr, align 8
  store ptr %0, ptr %2, align 8
  %3 = load ptr, ptr %2, align 8
  %4 = getelementptr inbounds %"struct.std::thread::_Invoker", ptr %3, i32 0, i32 0
  %5 = call noundef nonnull align 8 dereferenceable(24) ptr @"_ZSt3getILm0EJZN9Stockfish18TranspositionTable5clearEmE3$_0EEONSt13tuple_elementIXT_ESt5tupleIJDpT0_EEE4typeEOS7_"(ptr noundef nonnull align 8 dereferenceable(24) %4) #3
  call void @"_ZSt8__invokeIZN9Stockfish18TranspositionTable5clearEmE3$_0JEENSt15__invoke_resultIT_JDpT0_EE4typeEOS4_DpOS5_"(ptr noundef nonnull align 8 dereferenceable(24) %5)
  ret void
}

; Function Attrs: mustprogress nounwind uwtable
define internal void @"_ZNSt6thread8_InvokerISt5tupleIJZN9Stockfish18TranspositionTable5clearEmE3$_0EEEclEv"(ptr noundef nonnull align 8 dereferenceable(24) %0) #4 align 2 {
  %2 = alloca ptr, align 8
  store ptr %0, ptr %2, align 8
  %3 = load ptr, ptr %2, align 8
  call void @"_ZNSt6thread8_InvokerISt5tupleIJZN9Stockfish18TranspositionTable5clearEmE3$_0EEE9_M_invokeIJLm0EEEEvSt12_Index_tupleIJXspT_EEE"(ptr noundef nonnull align 8 dereferenceable(24) %3)
  ret void
}

; Function Attrs: mustprogress nounwind uwtable
define internal void @"_ZNSt6thread11_State_implINS_8_InvokerISt5tupleIJZN9Stockfish18TranspositionTable5clearEmE3$_0EEEEE6_M_runEv"(ptr noundef nonnull align 8 dereferenceable(32) %0) unnamed_addr #4 align 2 {
  %2 = alloca ptr, align 8
  store ptr %0, ptr %2, align 8
  %3 = load ptr, ptr %2, align 8
  %4 = getelementptr inbounds %"struct.std::thread::_State_impl", ptr %3, i32 0, i32 1
  call void @"_ZNSt6thread8_InvokerISt5tupleIJZN9Stockfish18TranspositionTable5clearEmE3$_0EEEclEv"(ptr noundef nonnull align 8 dereferenceable(24) %4)
  ret void
}