; Function Attrs: mustprogress nounwind uwtable
define internal void @"_ZNSt6thread11_State_implINS_8_InvokerISt5tupleIJZN9Stockfish18TranspositionTable5clearEmE3$_0EEEEE6_M_runEv"(ptr nocapture noundef nonnull readonly align 8 dereferenceable(32) %0) unnamed_addr #5 align 2 {
  %2 = getelementptr inbounds i8, ptr %0, i64 8
  %3 = load ptr, ptr %2, align 8
  %4 = getelementptr inbounds i8, ptr %0, i64 24
  %5 = load i64, ptr %4, align 8
  %6 = icmp ugt i64 %5, 8
  br i1 %6, label %7, label %"_ZNSt6thread8_InvokerISt5tupleIJZN9Stockfish18TranspositionTable5clearEmE3$_0EEEclEv.exit"

7:                                                ; preds = %1
  %8 = getelementptr inbounds i8, ptr %0, i64 16
  %9 = load i64, ptr %8, align 8
  tail call void @_ZN9Stockfish12WinProcGroup14bindThisThreadEm(i64 noundef %9) #17
  %.pre.i.i.i.i.i = load i64, ptr %4, align 8
  br label %"_ZNSt6thread8_InvokerISt5tupleIJZN9Stockfish18TranspositionTable5clearEmE3$_0EEEclEv.exit"

"_ZNSt6thread8_InvokerISt5tupleIJZN9Stockfish18TranspositionTable5clearEmE3$_0EEEclEv.exit": ; preds = %1, %7
  %10 = phi i64 [ %.pre.i.i.i.i.i, %7 ], [ %5, %1 ]
  %11 = load i64, ptr %3, align 8
  %12 = udiv i64 %11, %10
  %13 = getelementptr inbounds i8, ptr %0, i64 16
  %14 = load i64, ptr %13, align 8
  %15 = mul i64 %14, %12
  %16 = add i64 %10, -1
  %.not.i.i.i.i.i = icmp eq i64 %14, %16
  %17 = sub i64 %11, %15
  %18 = select i1 %.not.i.i.i.i.i, i64 %17, i64 %12
  %19 = getelementptr inbounds i8, ptr %3, i64 8
  %20 = load ptr, ptr %19, align 8
  %21 = getelementptr inbounds %"struct.Stockfish::TranspositionTable::Cluster", ptr %20, i64 %15
  %22 = shl i64 %18, 5
  tail call void @llvm.memset.p0.i64(ptr align 2 %21, i8 0, i64 %22, i1 false)
  ret void
}